target datalayout = "e-m:e-p270:32:32-p271:32:32-p272:64:64-i64:64-i128:128-f80:128-n8:16:32:64-S128"
target triple = "x86_64-pc-linux-gnu"

%"class.std::vector.27" = type { %"struct.std::_Vector_base.28" }
%"struct.std::_Vector_base.28" = type { %"struct.std::_Vector_base<pbrt::DisplayItem, std::allocator<pbrt::DisplayItem>>::_Vector_impl" }
%"struct.std::_Vector_base<pbrt::DisplayItem, std::allocator<pbrt::DisplayItem>>::_Vector_impl" = type { %"struct.std::_Vector_base<pbrt::DisplayItem, std::allocator<pbrt::DisplayItem>>::_Vector_impl_data" }
%"struct.std::_Vector_base<pbrt::DisplayItem, std::allocator<pbrt::DisplayItem>>::_Vector_impl_data" = type { ptr, ptr, ptr }
%union.pthread_mutex_t = type { %struct.__pthread_mutex_s }
%struct.__pthread_mutex_s = type { i32, i32, i32, i32, i32, i16, i16, %struct.__pthread_internal_list }
%struct.__pthread_internal_list = type { ptr, ptr }
%"class.std::__cxx11::basic_string" = type { %"struct.std::__cxx11::basic_string<char>::_Alloc_hider", i64, %union.anon }
%"struct.std::__cxx11::basic_string<char>::_Alloc_hider" = type { ptr }
%union.anon = type { i64, [8 x i8] }
%"class.pbrt::Point2" = type { %"class.pbrt::Tuple2" }
%"class.pbrt::Tuple2" = type { i32, i32 }
%"class.pbrt::DisplayItem" = type { i8, %"class.std::__cxx11::basic_string", %"class.pbrt::Point2", %"class.std::function", %"class.std::vector", %"class.std::vector.3" }
%"class.std::function" = type { %"class.std::_Function_base", ptr }
%"class.std::_Function_base" = type { %"union.std::_Any_data", ptr }
%"union.std::_Any_data" = type { %"union.std::_Nocopy_types" }
%"union.std::_Nocopy_types" = type { { i64, i64 } }
%"class.std::vector" = type { %"struct.std::_Vector_base" }
%"struct.std::_Vector_base" = type { %"struct.std::_Vector_base<std::__cxx11::basic_string<char>, std::allocator<std::__cxx11::basic_string<char>>>::_Vector_impl" }
%"struct.std::_Vector_base<std::__cxx11::basic_string<char>, std::allocator<std::__cxx11::basic_string<char>>>::_Vector_impl" = type { %"struct.std::_Vector_base<std::__cxx11::basic_string<char>, std::allocator<std::__cxx11::basic_string<char>>>::_Vector_impl_data" }
%"struct.std::_Vector_base<std::__cxx11::basic_string<char>, std::allocator<std::__cxx11::basic_string<char>>>::_Vector_impl_data" = type { ptr, ptr, ptr }
%"class.std::vector.3" = type { %"struct.std::_Vector_base.4" }
%"struct.std::_Vector_base.4" = type { %"struct.std::_Vector_base<pbrt::DisplayItem::ImageChannelBuffer, std::allocator<pbrt::DisplayItem::ImageChannelBuffer>>::_Vector_impl" }
%"struct.std::_Vector_base<pbrt::DisplayItem::ImageChannelBuffer, std::allocator<pbrt::DisplayItem::ImageChannelBuffer>>::_Vector_impl" = type { %"struct.std::_Vector_base<pbrt::DisplayItem::ImageChannelBuffer, std::allocator<pbrt::DisplayItem::ImageChannelBuffer>>::_Vector_impl_data" }
%"struct.std::_Vector_base<pbrt::DisplayItem::ImageChannelBuffer, std::allocator<pbrt::DisplayItem::ImageChannelBuffer>>::_Vector_impl_data" = type { ptr, ptr, ptr }
%"class.std::lock_guard" = type { ptr }
%"class.pstd::optional" = type { %"union.std::aligned_storage<48, 8>::type", i8, [7 x i8] }
%"union.std::aligned_storage<48, 8>::type" = type { [48 x i8] }
%"class.std::__mutex_base" = type { %union.pthread_mutex_t }

@_ZN4pbrtL12dynamicItemsE = internal global %"class.std::vector.27" zeroinitializer, align 8
@_ZN4pbrtL5mutexE = internal global { %union.pthread_mutex_t } zeroinitializer, align 8

; Function Attrs: inlinehint mustprogress nounwind uwtable
define internal noundef i32 @_ZL18__gthread_active_pv() #12 {
  ret i32 1
}

; Function Attrs: inlinehint mustprogress nounwind uwtable
define internal noundef i32 @_ZL22__gthread_mutex_unlockP15pthread_mutex_t(ptr noundef %0) #12 {
  %2 = alloca i32, align 4
  %3 = alloca ptr, align 8
  store ptr %0, ptr %3, align 8, !tbaa !164
  %4 = call noundef i32 @_ZL18__gthread_active_pv()
  %5 = icmp ne i32 %4, 0
  br i1 %5, label %6, label %9

6:                                                ; preds = %1
  %7 = load ptr, ptr %3, align 8, !tbaa !164
  %8 = call i32 @pthread_mutex_unlock(ptr noundef %7) #13
  store i32 %8, ptr %2, align 4
  br label %10

9:                                                ; preds = %1
  store i32 0, ptr %2, align 4
  br label %10

10:                                               ; preds = %9, %6
  %11 = load i32, ptr %2, align 4
  ret i32 %11
}

; Function Attrs: inlinehint mustprogress uwtable
define internal noundef i32 @_ZL20__gthread_mutex_lockP15pthread_mutex_t(ptr noundef %0) #8 {
  %2 = alloca i32, align 4
  %3 = alloca ptr, align 8
  store ptr %0, ptr %3, align 8, !tbaa !164
  %4 = call noundef i32 @_ZL18__gthread_active_pv()
  %5 = icmp ne i32 %4, 0
  br i1 %5, label %6, label %9

6:                                                ; preds = %1
  %7 = load ptr, ptr %3, align 8, !tbaa !164
  %8 = call i32 @pthread_mutex_lock(ptr noundef %7) #13
  store i32 %8, ptr %2, align 4
  br label %10

9:                                                ; preds = %1
  store i32 0, ptr %2, align 4
  br label %10

10:                                               ; preds = %9, %6
  %11 = load i32, ptr %2, align 4
  ret i32 %11
}

; Function Attrs: mustprogress uwtable
define linkonce_odr dso_local void @_ZNSt5mutex6unlockEv(ptr noundef nonnull align 8 dereferenceable(40) %0) #1 comdat align 2 {
  %2 = alloca ptr, align 8
  store ptr %0, ptr %2, align 8, !tbaa !187
  %3 = load ptr, ptr %2, align 8
  %4 = getelementptr inbounds nuw %"class.std::__mutex_base", ptr %3, i32 0, i32 0
  %5 = call noundef i32 @_ZL22__gthread_mutex_unlockP15pthread_mutex_t(ptr noundef %4)
  ret void
}

; Function Attrs: mustprogress uwtable
define linkonce_odr dso_local void @_ZNSt5mutex4lockEv(ptr noundef nonnull align 8 dereferenceable(40) %0) #1 comdat align 2 {
  %2 = alloca ptr, align 8
  %3 = alloca i32, align 4
  store ptr %0, ptr %2, align 8, !tbaa !187
  %4 = load ptr, ptr %2, align 8
  call void @llvm.lifetime.start.p0(i64 4, ptr %3) #13
  %5 = getelementptr inbounds nuw %"class.std::__mutex_base", ptr %4, i32 0, i32 0
  %6 = call noundef i32 @_ZL20__gthread_mutex_lockP15pthread_mutex_t(ptr noundef %5)
  store i32 %6, ptr %3, align 4, !tbaa !28
  %7 = load i32, ptr %3, align 4, !tbaa !28
  %8 = icmp ne i32 %7, 0
  br i1 %8, label %9, label %11

9:                                                ; preds = %1
  %10 = load i32, ptr %3, align 4, !tbaa !28
  call void @_ZSt20__throw_system_errori(i32 noundef %10) #21
  unreachable

11:                                               ; preds = %1
  call void @llvm.lifetime.end.p0(i64 4, ptr %3) #13
  ret void
}

; Function Attrs: mustprogress nounwind uwtable
define linkonce_odr dso_local void @_ZNSt10lock_guardISt5mutexED2Ev(ptr noundef nonnull align 8 dereferenceable(8) %0) unnamed_addr #3 comdat align 2 personality ptr @__gxx_personality_v0 {
  %2 = alloca ptr, align 8
  store ptr %0, ptr %2, align 8, !tbaa !185
  %3 = load ptr, ptr %2, align 8
  %4 = getelementptr inbounds nuw %"class.std::lock_guard", ptr %3, i32 0, i32 0
  %5 = load ptr, ptr %4, align 8, !tbaa !189
  invoke void @_ZNSt5mutex6unlockEv(ptr noundef nonnull align 8 dereferenceable(40) %5)
          to label %6 unwind label %7

6:                                                ; preds = %1
  ret void

7:                                                ; preds = %1
  %8 = landingpad { ptr, i32 }
          catch ptr null
  %9 = extractvalue { ptr, i32 } %8, 0
  call void @__clang_call_terminate(ptr %9) #22
  unreachable
}

; Function Attrs: mustprogress uwtable
define linkonce_odr dso_local void @_ZNSt6vectorIN4pbrt11DisplayItemESaIS1_EE9push_backEOS1_(ptr noundef nonnull align 8 dereferenceable(24) %0, ptr noundef nonnull align 8 dereferenceable(128) %1) #1 comdat align 2 {
  %3 = alloca ptr, align 8
  %4 = alloca ptr, align 8
  store ptr %0, ptr %3, align 8, !tbaa !158
  store ptr %1, ptr %4, align 8, !tbaa !68
  %5 = load ptr, ptr %3, align 8
  %6 = load ptr, ptr %4, align 8, !tbaa !68
  %7 = call noundef nonnull align 8 dereferenceable(128) ptr @_ZNSt6vectorIN4pbrt11DisplayItemESaIS1_EE12emplace_backIJS1_EEERS1_DpOT_(ptr noundef nonnull align 8 dereferenceable(24) %5, ptr noundef nonnull align 8 dereferenceable(128) %6)
  ret void
}

; Function Attrs: mustprogress uwtable
define linkonce_odr dso_local void @_ZNSt10lock_guardISt5mutexEC2ERS0_(ptr noundef nonnull align 8 dereferenceable(8) %0, ptr noundef nonnull align 8 dereferenceable(40) %1) unnamed_addr #1 comdat align 2 {
  %3 = alloca ptr, align 8
  %4 = alloca ptr, align 8
  store ptr %0, ptr %3, align 8, !tbaa !185
  store ptr %1, ptr %4, align 8, !tbaa !187
  %5 = load ptr, ptr %3, align 8
  %6 = getelementptr inbounds nuw %"class.std::lock_guard", ptr %5, i32 0, i32 0
  %7 = load ptr, ptr %4, align 8, !tbaa !187
  store ptr %7, ptr %6, align 8, !tbaa !187
  %8 = getelementptr inbounds nuw %"class.std::lock_guard", ptr %5, i32 0, i32 0
  %9 = load ptr, ptr %8, align 8, !tbaa !189
  call void @_ZNSt5mutex4lockEv(ptr noundef nonnull align 8 dereferenceable(40) %9)
  ret void
}

; Function Attrs: mustprogress uwtable
define dso_local void @_ZN4pbrt14DisplayDynamicENSt7__cxx1112basic_stringIcSt11char_traitsIcESaIcEEERKNS_5ImageEN4pstd8optionalINS_16ImageChannelDescEEE(ptr noundef %0, ptr noundef nonnull align 8 dereferenceable(152) %1, ptr noundef %2) #1 personality ptr @__gxx_personality_v0 {
  %4 = alloca ptr, align 8
  %5 = alloca ptr, align 8
  %6 = alloca ptr, align 8
  %7 = alloca %"class.std::lock_guard", align 8
  %8 = alloca %"class.pbrt::DisplayItem", align 8
  %9 = alloca %"class.pstd::optional", align 8
  %10 = alloca ptr, align 8
  %11 = alloca i32, align 4
  store ptr %0, ptr %4, align 8, !tbaa !15
  store ptr %1, ptr %5, align 8, !tbaa !175
  store ptr %2, ptr %6, align 8, !tbaa !177
  call void @llvm.lifetime.start.p0(i64 8, ptr %7) #13
  call void @_ZNSt10lock_guardISt5mutexEC2ERS0_(ptr noundef nonnull align 8 dereferenceable(8) %7, ptr noundef nonnull align 8 dereferenceable(40) @_ZN4pbrtL5mutexE)
  call void @llvm.lifetime.start.p0(i64 128, ptr %8) #13
  %12 = load ptr, ptr %5, align 8, !tbaa !175
  invoke void @_ZN4pstd8optionalIN4pbrt16ImageChannelDescEEC2ERKS3_(ptr noundef nonnull align 8 dereferenceable(49) %9, ptr noundef nonnull align 8 dereferenceable(49) %2)
          to label %13 unwind label %16

13:                                               ; preds = %3
  invoke void @_ZN4pbrtL19GetImageDisplayItemERKNSt7__cxx1112basic_stringIcSt11char_traitsIcESaIcEEERKNS_5ImageEN4pstd8optionalINS_16ImageChannelDescEEE(ptr dead_on_unwind writable sret(%"class.pbrt::DisplayItem") align 8 %8, ptr noundef nonnull align 8 dereferenceable(32) %0, ptr noundef nonnull align 8 dereferenceable(152) %12, ptr noundef %9)
          to label %14 unwind label %20

14:                                               ; preds = %13
  invoke void @_ZNSt6vectorIN4pbrt11DisplayItemESaIS1_EE9push_backEOS1_(ptr noundef nonnull align 8 dereferenceable(24) @_ZN4pbrtL12dynamicItemsE, ptr noundef nonnull align 8 dereferenceable(128) %8)
          to label %15 unwind label %24

15:                                               ; preds = %14
  call void @_ZN4pbrt11DisplayItemD2Ev(ptr noundef nonnull align 8 dereferenceable(128) %8) #13
  call void @_ZN4pstd8optionalIN4pbrt16ImageChannelDescEED2Ev(ptr noundef nonnull align 8 dereferenceable(49) %9) #13
  call void @llvm.lifetime.end.p0(i64 128, ptr %8) #13
  call void @_ZNSt10lock_guardISt5mutexED2Ev(ptr noundef nonnull align 8 dereferenceable(8) %7) #13
  call void @llvm.lifetime.end.p0(i64 8, ptr %7) #13
  ret void

16:                                               ; preds = %3
  %17 = landingpad { ptr, i32 }
          cleanup
  %18 = extractvalue { ptr, i32 } %17, 0
  store ptr %18, ptr %10, align 8
  %19 = extractvalue { ptr, i32 } %17, 1
  store i32 %19, ptr %11, align 4
  br label %29

20:                                               ; preds = %13
  %21 = landingpad { ptr, i32 }
          cleanup
  %22 = extractvalue { ptr, i32 } %21, 0
  store ptr %22, ptr %10, align 8
  %23 = extractvalue { ptr, i32 } %21, 1
  store i32 %23, ptr %11, align 4
  br label %28

24:                                               ; preds = %14
  %25 = landingpad { ptr, i32 }
          cleanup
  %26 = extractvalue { ptr, i32 } %25, 0
  store ptr %26, ptr %10, align 8
  %27 = extractvalue { ptr, i32 } %25, 1
  store i32 %27, ptr %11, align 4
  call void @_ZN4pbrt11DisplayItemD2Ev(ptr noundef nonnull align 8 dereferenceable(128) %8) #13
  br label %28

28:                                               ; preds = %24, %20
  call void @_ZN4pstd8optionalIN4pbrt16ImageChannelDescEED2Ev(ptr noundef nonnull align 8 dereferenceable(49) %9) #13
  br label %29

29:                                               ; preds = %28, %16
  call void @llvm.lifetime.end.p0(i64 128, ptr %8) #13
  call void @_ZNSt10lock_guardISt5mutexED2Ev(ptr noundef nonnull align 8 dereferenceable(8) %7) #13
  call void @llvm.lifetime.end.p0(i64 8, ptr %7) #13
  br label %30

30:                                               ; preds = %29
  %31 = load ptr, ptr %10, align 8
  %32 = load i32, ptr %11, align 4
  %33 = insertvalue { ptr, i32 } poison, ptr %31, 0
  %34 = insertvalue { ptr, i32 } %33, i32 %32, 1
  resume { ptr, i32 } %34
}