; Function Attrs: mustprogress uwtable
define dso_local void @_ZN4pbrt14DisplayDynamicENSt7__cxx1112basic_stringIcSt11char_traitsIcESaIcEEERKNS_5ImageEN4pstd8optionalINS_16ImageChannelDescEEE(ptr noundef %0, ptr noundef nonnull align 8 dereferenceable(152) %1, ptr noundef %2) local_unnamed_addr #1 personality ptr @__gxx_personality_v0 {
  %4 = alloca %"class.pbrt::DisplayItem", align 8
  %5 = alloca %"class.pstd::optional", align 8
  %6 = tail call noundef i32 @pthread_mutex_lock(ptr noundef nonnull align 8 dereferenceable(40) @_ZN4pbrtL5mutexE) #24
  %.not.i.i = icmp eq i32 %6, 0
  br i1 %.not.i.i, label %_ZNSt10lock_guardISt5mutexEC2ERS0_.exit, label %7

7:                                                ; preds = %3
  tail call void @_ZSt20__throw_system_errori(i32 noundef %6) #25
  unreachable

_ZNSt10lock_guardISt5mutexEC2ERS0_.exit:          ; preds = %3
  call void @llvm.lifetime.start.p0(i64 128, ptr nonnull %4) #24
  invoke void @_ZN4pstd8optionalIN4pbrt16ImageChannelDescEEC2ERKS3_(ptr noundef nonnull align 8 dereferenceable(49) %5, ptr noundef nonnull align 8 dereferenceable(49) %2)
          to label %8 unwind label %29

8:                                                ; preds = %_ZNSt10lock_guardISt5mutexEC2ERS0_.exit
  invoke fastcc void @_ZN4pbrtL19GetImageDisplayItemERKNSt7__cxx1112basic_stringIcSt11char_traitsIcESaIcEEERKNS_5ImageEN4pstd8optionalINS_16ImageChannelDescEEE(ptr dead_on_unwind noalias writable align 8 %4, ptr noundef nonnull align 8 dereferenceable(32) %0, ptr noundef nonnull align 8 dereferenceable(152) %1, ptr noundef %5)
          to label %9 unwind label %31

9:                                                ; preds = %8
  %10 = invoke noundef nonnull align 8 dereferenceable(128) ptr @_ZNSt6vectorIN4pbrt11DisplayItemESaIS1_EE12emplace_backIJS1_EEERS1_DpOT_(ptr noundef nonnull align 8 dereferenceable(24) @_ZN4pbrtL12dynamicItemsE, ptr noundef nonnull align 8 dereferenceable(128) %4)
          to label %_ZNSt6vectorIN4pbrt11DisplayItemESaIS1_EE9push_backEOS1_.exit unwind label %33

_ZNSt6vectorIN4pbrt11DisplayItemESaIS1_EE9push_backEOS1_.exit: ; preds = %9
  call void @_ZN4pbrt11DisplayItemD2Ev(ptr noundef nonnull align 8 dereferenceable(128) %4) #24
  %11 = getelementptr inbounds nuw i8, ptr %5, i64 48
  %12 = load i8, ptr %11, align 8, !tbaa !153, !range !115, !noundef !116
  %13 = trunc nuw i8 %12 to i1
  br i1 %13, label %_ZN4pstd8optionalIN4pbrt16ImageChannelDescEE5valueEv.exit.i.i, label %_ZN4pstd8optionalIN4pbrt16ImageChannelDescEED2Ev.exit

_ZN4pstd8optionalIN4pbrt16ImageChannelDescEE5valueEv.exit.i.i: ; preds = %_ZNSt6vectorIN4pbrt11DisplayItemESaIS1_EE9push_backEOS1_.exit
  %14 = getelementptr inbounds nuw i8, ptr %5, i64 40
  store i64 0, ptr %14, align 8, !tbaa !155
  %15 = getelementptr inbounds nuw i8, ptr %5, i64 8
  %16 = load ptr, ptr %15, align 8, !tbaa !160
  %.not.i.i.i.i.i.i.i = icmp eq ptr %16, null
  br i1 %.not.i.i.i.i.i.i.i, label %_ZN4pbrt16ImageChannelDescD2Ev.exit.i.i, label %17

17:                                               ; preds = %_ZN4pstd8optionalIN4pbrt16ImageChannelDescEE5valueEv.exit.i.i
  %18 = getelementptr inbounds nuw i8, ptr %5, i64 32
  %19 = load i64, ptr %18, align 8, !tbaa !161
  %20 = shl i64 %19, 2
  %21 = load ptr, ptr %5, align 8, !tbaa !162
  %22 = load ptr, ptr %21, align 8, !tbaa !138
  %23 = getelementptr inbounds nuw i8, ptr %22, i64 24
  %24 = load ptr, ptr %23, align 8
  invoke void %24(ptr noundef nonnull align 8 dereferenceable(8) %21, ptr noundef nonnull %16, i64 noundef %20, i64 noundef 4)
          to label %_ZN4pbrt16ImageChannelDescD2Ev.exit.i.i unwind label %25

25:                                               ; preds = %17
  %26 = landingpad { ptr, i32 }
          catch ptr null
  %27 = extractvalue { ptr, i32 } %26, 0
  call void @__clang_call_terminate(ptr %27) #28
  unreachable

_ZN4pbrt16ImageChannelDescD2Ev.exit.i.i:          ; preds = %17, %_ZN4pstd8optionalIN4pbrt16ImageChannelDescEE5valueEv.exit.i.i
  store i8 0, ptr %11, align 8, !tbaa !153
  br label %_ZN4pstd8optionalIN4pbrt16ImageChannelDescEED2Ev.exit

_ZN4pstd8optionalIN4pbrt16ImageChannelDescEED2Ev.exit: ; preds = %_ZNSt6vectorIN4pbrt11DisplayItemESaIS1_EE9push_backEOS1_.exit, %_ZN4pbrt16ImageChannelDescD2Ev.exit.i.i
  call void @llvm.lifetime.end.p0(i64 128, ptr nonnull %4) #24
  %28 = call noundef i32 @pthread_mutex_unlock(ptr noundef nonnull align 8 dereferenceable(40) @_ZN4pbrtL5mutexE) #24
  ret void

29:                                               ; preds = %_ZNSt10lock_guardISt5mutexEC2ERS0_.exit
  %30 = landingpad { ptr, i32 }
          cleanup
  br label %36

31:                                               ; preds = %8
  %32 = landingpad { ptr, i32 }
          cleanup
  br label %35

33:                                               ; preds = %9
  %34 = landingpad { ptr, i32 }
          cleanup
  call void @_ZN4pbrt11DisplayItemD2Ev(ptr noundef nonnull align 8 dereferenceable(128) %4) #24
  br label %35

35:                                               ; preds = %33, %31
  %.pn = phi { ptr, i32 } [ %34, %33 ], [ %32, %31 ]
  call void @_ZN4pstd8optionalIN4pbrt16ImageChannelDescEED2Ev(ptr noundef nonnull align 8 dereferenceable(49) %5) #24
  br label %36

36:                                               ; preds = %35, %29
  %.pn.pn = phi { ptr, i32 } [ %.pn, %35 ], [ %30, %29 ]
  call void @llvm.lifetime.end.p0(i64 128, ptr nonnull %4) #24
  %37 = call noundef i32 @pthread_mutex_unlock(ptr noundef nonnull align 8 dereferenceable(40) @_ZN4pbrtL5mutexE) #24
  resume { ptr, i32 } %.pn.pn
}